target datalayout = "e-m:e-p270:32:32-p271:32:32-p272:64:64-i64:64-i128:128-f80:128-n8:16:32:64-S128"
target triple = "x86_64-pc-linux-gnu"

; Function Attrs: mustprogress uwtable
define void @_ZN10colvardeps11set_enabledEib(ptr noundef nonnull align 8 dereferenceable(120) %0, i32 noundef %1, i1 noundef zeroext %2) #3 align 2 {
  %4 = alloca ptr, align 8
  %5 = alloca i32, align 4
  %6 = alloca i8, align 1
  store ptr %0, ptr %4, align 8
  store i32 %1, ptr %5, align 4
  %7 = zext i1 %2 to i8
  store i8 %7, ptr %6, align 1
  %8 = load ptr, ptr %4, align 8
  %9 = load i8, ptr %6, align 1
  %10 = trunc i8 %9 to i1
  br i1 %10, label %11, label %14

11:                                               ; preds = %3
  %12 = load i32, ptr %5, align 4
  %13 = call noundef i32 @_ZN10colvardeps6enableEibb(ptr noundef nonnull align 8 dereferenceable(120) %8, i32 noundef %12, i1 noundef zeroext false, i1 noundef zeroext true)
  br label %17

14:                                               ; preds = %3
  %15 = load i32, ptr %5, align 4
  %16 = call noundef i32 @_ZN10colvardeps7disableEi(ptr noundef nonnull align 8 dereferenceable(120) %8, i32 noundef %15)
  br label %17

17:                                               ; preds = %14, %11
  ret void
}