; Function Attrs: mustprogress uwtable
define void @_ZN10colvardeps11set_enabledEib(ptr noundef nonnull align 8 dereferenceable(120) %0, i32 noundef %1, i1 noundef zeroext %2) local_unnamed_addr #4 align 2 {
  br i1 %2, label %4, label %6

4:                                                ; preds = %3
  %5 = tail call noundef i32 @_ZN10colvardeps6enableEibb(ptr noundef nonnull align 8 dereferenceable(120) %0, i32 noundef %1, i1 noundef zeroext false, i1 noundef zeroext true), !range !10
  br label %8

6:                                                ; preds = %3
  %7 = tail call noundef i32 @_ZN10colvardeps7disableEi(ptr noundef nonnull align 8 dereferenceable(120) %0, i32 noundef %1), !range !10
  br label %8

8:                                                ; preds = %6, %4
  ret void
}